target datalayout = "e-m:e-p270:32:32-p271:32:32-p272:64:64-i64:64-i128:128-f80:128-n8:16:32:64-S128"
target triple = "x86_64-pc-linux-gnu"

; Function Attrs: nounwind uwtable
define dso_local double @zzlStrtod(ptr noundef %0, i32 noundef %1) #0 {
  %3 = alloca ptr, align 8
  %4 = alloca i32, align 4
  %5 = alloca [128 x i8], align 16
  store ptr %0, ptr %3, align 8, !tbaa !11
  store i32 %1, ptr %4, align 4, !tbaa !5
  call void @llvm.lifetime.start.p0(i64 128, ptr %5) #12
  %6 = load i32, ptr %4, align 4, !tbaa !5
  %7 = zext i32 %6 to i64
  %8 = icmp ugt i64 %7, 127
  br i1 %8, label %9, label %10

9:                                                ; preds = %2
  store i32 127, ptr %4, align 4, !tbaa !5
  br label %10

10:                                               ; preds = %9, %2
  %11 = getelementptr inbounds [128 x i8], ptr %5, i64 0, i64 0
  %12 = load ptr, ptr %3, align 8, !tbaa !11
  %13 = load i32, ptr %4, align 4, !tbaa !5
  %14 = zext i32 %13 to i64
  call void @llvm.memcpy.p0.p0.i64(ptr align 16 %11, ptr align 1 %12, i64 %14, i1 false)
  %15 = load i32, ptr %4, align 4, !tbaa !5
  %16 = zext i32 %15 to i64
  %17 = getelementptr inbounds nuw [128 x i8], ptr %5, i64 0, i64 %16
  store i8 0, ptr %17, align 1, !tbaa !86
  %18 = getelementptr inbounds [128 x i8], ptr %5, i64 0, i64 0
  %19 = call double @fast_float_strtod(ptr noundef %18, ptr noundef null)
  call void @llvm.lifetime.end.p0(i64 128, ptr %5) #12
  ret double %19
}