; Function Attrs: nounwind uwtable
define dso_local double @zzlStrtod(ptr noundef readonly captures(none) %0, i32 noundef %1) local_unnamed_addr #0 {
  %3 = alloca [128 x i8], align 16
  call void @llvm.lifetime.start.p0(i64 128, ptr nonnull %3) #18
  %spec.store.select = tail call i32 @llvm.umin.i32(i32 %1, i32 127)
  %4 = zext nneg i32 %spec.store.select to i64
  call void @llvm.memcpy.p0.p0.i64(ptr nonnull align 16 %3, ptr align 1 %0, i64 %4, i1 false)
  %5 = getelementptr inbounds nuw [128 x i8], ptr %3, i64 0, i64 %4
  store i8 0, ptr %5, align 1, !tbaa !77
  %6 = call double @fast_float_strtod(ptr noundef nonnull %3, ptr noundef null) #18
  call void @llvm.lifetime.end.p0(i64 128, ptr nonnull %3) #18
  ret double %6
}